target datalayout = "e-m:e-p270:32:32-p271:32:32-p272:64:64-i64:64-i128:128-f80:128-n8:16:32:64-S128"
target triple = "x86_64-pc-linux-gnu"

@.str.55 = private unnamed_addr constant [10 x i8] c"Errno(%d)\00", align 1

; Function Attrs: null_pointer_is_valid sspstrong uwtable
define ptr @ws_strerrorname_r(i32 noundef %0, ptr noundef %1, i64 noundef %2) #0 {
  %4 = alloca ptr, align 8
  %5 = alloca i32, align 4
  %6 = alloca ptr, align 8
  %7 = alloca i64, align 8
  %8 = alloca ptr, align 8
  %9 = alloca i32, align 4
  store i32 %0, ptr %5, align 4
  store ptr %1, ptr %6, align 8
  store i64 %2, ptr %7, align 8
  call void @llvm.lifetime.start.p0(i64 8, ptr %8) #15
  %10 = load i32, ptr %5, align 4
  %11 = call ptr @strerrorname_np(i32 noundef %10) #15
  store ptr %11, ptr %8, align 8
  %12 = load ptr, ptr %8, align 8
  %13 = icmp ne ptr %12, null
  br i1 %13, label %14, label %20

14:                                               ; preds = %3
  %15 = load ptr, ptr %6, align 8
  %16 = load ptr, ptr %8, align 8
  %17 = load i64, ptr %7, align 8
  %18 = call i64 @g_strlcpy(ptr noundef %15, ptr noundef %16, i64 noundef %17)
  %19 = load ptr, ptr %6, align 8
  store ptr %19, ptr %4, align 8
  store i32 1, ptr %9, align 4
  br label %28

20:                                               ; preds = %3
  %21 = load ptr, ptr %6, align 8
  %22 = load i64, ptr %7, align 8
  %23 = load ptr, ptr %6, align 8
  %24 = call i64 @llvm.objectsize.i64.p0(ptr %23, i1 false, i1 true, i1 true)
  %25 = load i32, ptr %5, align 4
  %26 = call i32 (ptr, i64, i32, i64, ptr, ...) @__snprintf_chk(ptr noundef %21, i64 noundef %22, i32 noundef 2, i64 noundef %24, ptr noundef @.str.55, i32 noundef %25)
  %27 = load ptr, ptr %6, align 8
  store ptr %27, ptr %4, align 8
  store i32 1, ptr %9, align 4
  br label %28

28:                                               ; preds = %20, %14
  call void @llvm.lifetime.end.p0(i64 8, ptr %8) #15
  %29 = load ptr, ptr %4, align 8
  ret ptr %29
}