; Function Attrs: null_pointer_is_valid sspstrong uwtable
define noundef ptr @ws_strerrorname_r(i32 noundef %0, ptr noundef returned %1, i64 noundef %2) local_unnamed_addr #0 {
  %4 = tail call ptr @strerrorname_np(i32 noundef %0) #23
  %.not = icmp eq ptr %4, null
  br i1 %.not, label %7, label %5

5:                                                ; preds = %3
  %6 = tail call i64 @g_strlcpy(ptr noundef %1, ptr noundef nonnull %4, i64 noundef %2)
  br label %9

7:                                                ; preds = %3
  %8 = tail call i32 (ptr, i64, i32, i64, ptr, ...) @__snprintf_chk(ptr noundef %1, i64 noundef %2, i32 noundef 2, i64 noundef -1, ptr noundef nonnull @.str.55, i32 noundef %0)
  br label %9

9:                                                ; preds = %7, %5
  ret ptr %1
}